; Function Attrs: mustprogress uwtable
define void @_ZN32pxrInternal_v0_24__pxrReserved__37UsdComputeIncludedPathsFromCollectionERKNS_29Usd_CollectionMembershipQueryINS_38UsdObjectCollectionExpressionEvaluatorEEERKNS_9TfWeakPtrINS_8UsdStageEEERKNS_22Usd_PrimFlagsPredicateE(ptr dead_on_unwind noalias writable sret(%"class.std::set.142") align 8 initializes((8, 12), (16, 24)) %0, ptr noundef nonnull align 8 dereferenceable(184) %1, ptr noundef nonnull readonly align 8 captures(none) dereferenceable(16) %2, ptr noundef nonnull align 8 dereferenceable(17) %3) local_unnamed_addr #1 personality ptr @__gxx_personality_v0 {
  %5 = getelementptr inbounds nuw i8, ptr %0, i64 8
  store i32 0, ptr %5, align 8
  %6 = getelementptr inbounds nuw i8, ptr %0, i64 16
  store ptr null, ptr %6, align 8
  %7 = getelementptr inbounds nuw i8, ptr %0, i64 24
  store ptr %5, ptr %7, align 8
  %8 = getelementptr inbounds nuw i8, ptr %0, i64 32
  store ptr %5, ptr %8, align 8
  %9 = getelementptr inbounds nuw i8, ptr %0, i64 40
  store i64 0, ptr %9, align 8
  invoke fastcc void @_ZN32pxrInternal_v0_24__pxrReserved__12_GLOBAL__N_120_ComputeIncludedImplERKNS_29Usd_CollectionMembershipQueryINS_38UsdObjectCollectionExpressionEvaluatorEEERKNS_9TfWeakPtrINS_8UsdStageEEERKNS_22Usd_PrimFlagsPredicateEPSt3setINS_9UsdObjectESt4lessISF_ESaISF_EEPSE_INS_7SdfPathESG_ISL_ESaISL_EE(ptr noundef nonnull align 8 dereferenceable(184) %1, ptr noundef nonnull align 8 dereferenceable(16) %2, ptr noundef nonnull align 8 dereferenceable(17) %3, ptr noundef null, ptr noundef nonnull %0)
          to label %12 unwind label %10

10:                                               ; preds = %4
  %11 = landingpad { ptr, i32 }
          cleanup
  tail call void @_ZNSt3setIN32pxrInternal_v0_24__pxrReserved__7SdfPathESt4lessIS1_ESaIS1_EED2Ev(ptr noundef nonnull align 8 dereferenceable(48) %0) #23
  resume { ptr, i32 } %11

12:                                               ; preds = %4
  ret void
}